target datalayout = "e-m:e-p270:32:32-p271:32:32-p272:64:64-i64:64-i128:128-f80:128-n8:16:32:64-S128"
target triple = "x86_64-pc-linux-gnu"

@sane_ctype = external constant [256 x i8], align 16

; Function Attrs: nounwind uwtable
define dso_local i32 @is_urlschemechar(i32 noundef %0, i32 noundef %1) #0 {
  %3 = alloca i32, align 4
  %4 = alloca i32, align 4
  %5 = alloca i32, align 4
  %6 = alloca i32, align 4
  store i32 %0, ptr %3, align 4, !tbaa !4
  store i32 %1, ptr %4, align 4, !tbaa !4
  call void @llvm.lifetime.start.p0(i64 4, ptr %5) #7
  call void @llvm.lifetime.start.p0(i64 4, ptr %6) #7
  %7 = load i32, ptr %4, align 4, !tbaa !4
  %8 = icmp sgt i32 %7, 0
  br i1 %8, label %9, label %18

9:                                                ; preds = %2
  %10 = load i32, ptr %4, align 4, !tbaa !4
  %11 = trunc i32 %10 to i8
  %12 = zext i8 %11 to i64
  %13 = getelementptr inbounds nuw [256 x i8], ptr @sane_ctype, i64 0, i64 %12
  %14 = load i8, ptr %13, align 1, !tbaa !8
  %15 = zext i8 %14 to i32
  %16 = and i32 %15, 6
  %17 = icmp ne i32 %16, 0
  br label %18

18:                                               ; preds = %9, %2
  %19 = phi i1 [ false, %2 ], [ %17, %9 ]
  %20 = zext i1 %19 to i32
  store i32 %20, ptr %5, align 4, !tbaa !4
  %21 = load i32, ptr %4, align 4, !tbaa !4
  %22 = icmp eq i32 %21, 43
  br i1 %22, label %29, label %23

23:                                               ; preds = %18
  %24 = load i32, ptr %4, align 4, !tbaa !4
  %25 = icmp eq i32 %24, 45
  br i1 %25, label %29, label %26

26:                                               ; preds = %23
  %27 = load i32, ptr %4, align 4, !tbaa !4
  %28 = icmp eq i32 %27, 46
  br label %29

29:                                               ; preds = %26, %23, %18
  %30 = phi i1 [ true, %23 ], [ true, %18 ], [ %28, %26 ]
  %31 = zext i1 %30 to i32
  store i32 %31, ptr %6, align 4, !tbaa !4
  %32 = load i32, ptr %5, align 4, !tbaa !4
  %33 = icmp ne i32 %32, 0
  br i1 %33, label %42, label %34

34:                                               ; preds = %29
  %35 = load i32, ptr %3, align 4, !tbaa !4
  %36 = icmp ne i32 %35, 0
  br i1 %36, label %40, label %37

37:                                               ; preds = %34
  %38 = load i32, ptr %6, align 4, !tbaa !4
  %39 = icmp ne i32 %38, 0
  br label %40

40:                                               ; preds = %37, %34
  %41 = phi i1 [ false, %34 ], [ %39, %37 ]
  br label %42

42:                                               ; preds = %40, %29
  %43 = phi i1 [ true, %29 ], [ %41, %40 ]
  %44 = zext i1 %43 to i32
  call void @llvm.lifetime.end.p0(i64 4, ptr %6) #7
  call void @llvm.lifetime.end.p0(i64 4, ptr %5) #7
  ret i32 %44
}