; Function Attrs: mustprogress nofree norecurse nosync nounwind willreturn memory(none) uwtable
define dso_local range(i32 0, 2) i32 @is_urlschemechar(i32 noundef %0, i32 noundef %1) local_unnamed_addr #0 {
  %3 = icmp sgt i32 %1, 0
  br i1 %3, label %4, label %switch.edge

4:                                                ; preds = %2
  %5 = and i32 %1, 255
  %6 = zext nneg i32 %5 to i64
  %7 = getelementptr inbounds nuw [256 x i8], ptr @sane_ctype, i64 0, i64 %6
  %8 = load i8, ptr %7, align 1, !tbaa !4
  %9 = and i8 %8, 6
  %10 = icmp ne i8 %9, 0
  br label %switch.edge

switch.edge:                                      ; preds = %4, %2
  %11 = phi i1 [ false, %2 ], [ %10, %4 ]
  %12 = icmp ult i32 %1, 47
  %switch.cast = zext nneg i32 %1 to i47
  %switch.downshift = lshr i47 -26388279066624, %switch.cast
  %switch.masked = trunc i47 %switch.downshift to i1
  %13 = select i1 %12, i1 %switch.masked, i1 false
  %.not = icmp eq i32 %0, 0
  %14 = and i1 %.not, %13
  %narrow = or i1 %11, %14
  %15 = zext i1 %narrow to i32
  ret i32 %15
}